; Function Attrs: nounwind uwtable
define internal range(i64 0, 776) i64 @H5O__linfo_size(ptr noundef %0, i1 zeroext %1, ptr noundef readonly captures(none) %2) #0 {
  %4 = load i8, ptr @H5O_init_g, align 1, !tbaa !3, !range !7, !noundef !8
  %5 = trunc nuw i8 %4 to i1
  %6 = load i8, ptr @H5_libterm_g, align 1, !range !7
  %7 = trunc nuw i8 %6 to i1
  %8 = xor i1 %7, true
  %9 = select i1 %5, i1 true, i1 %8
  br i1 %9, label %10, label %29, !prof !9

10:                                               ; preds = %3
  %11 = load i8, ptr %2, align 8, !tbaa !16, !range !7, !noundef !8
  %12 = trunc nuw i8 %11 to i1
  %13 = select i1 %12, i64 10, i64 2
  %14 = tail call zeroext i8 @H5F_sizeof_addr(ptr noundef %0) #7
  %15 = zext i8 %14 to i64
  %16 = add nuw nsw i64 %13, %15
  %17 = tail call zeroext i8 @H5F_sizeof_addr(ptr noundef %0) #7
  %18 = zext i8 %17 to i64
  %19 = add nuw nsw i64 %16, %18
  %20 = getelementptr inbounds nuw i8, ptr %2, i64 1
  %21 = load i8, ptr %20, align 1, !tbaa !18, !range !7, !noundef !8
  %22 = trunc nuw i8 %21 to i1
  br i1 %22, label %23, label %26

23:                                               ; preds = %10
  %24 = tail call zeroext i8 @H5F_sizeof_addr(ptr noundef %0) #7
  %25 = zext i8 %24 to i64
  br label %26

26:                                               ; preds = %10, %23
  %27 = phi i64 [ %25, %23 ], [ 0, %10 ]
  %28 = add nuw nsw i64 %19, %27
  br label %29

29:                                               ; preds = %26, %3
  %.0 = phi i64 [ %28, %26 ], [ 0, %3 ]
  ret i64 %.0
}